target datalayout = "e-m:e-p270:32:32-p271:32:32-p272:64:64-i64:64-i128:128-f80:128-n8:16:32:64-S128"
target triple = "x86_64-pc-linux-gnu"

%struct.strbuf = type { i64, i64, ptr }
%struct.pack_objects_args = type { ptr, ptr, ptr, ptr, i64, i32, i32, i32, i32, %struct.list_objects_filter_options }
%struct.list_objects_filter_options = type { %struct.strbuf, i32, i8, ptr, i64, i64, i32, i64, i64, ptr }

@run_update_server_info = internal global i32 1, align 4
@write_bitmaps = internal global i32 -1, align 4
@use_delta_islands = internal global i32 0, align 4
@pack_kept_objects = internal global i32 -1, align 4
@.str.100 = private unnamed_addr constant [26 x i8] c"repack.usedeltabaseoffset\00", align 1
@delta_base_offset = internal global i32 1, align 4
@.str.101 = private unnamed_addr constant [23 x i8] c"repack.packkeptobjects\00", align 1
@.str.102 = private unnamed_addr constant [20 x i8] c"repack.writebitmaps\00", align 1
@.str.103 = private unnamed_addr constant [18 x i8] c"pack.writebitmaps\00", align 1
@.str.104 = private unnamed_addr constant [23 x i8] c"repack.usedeltaislands\00", align 1
@.str.105 = private unnamed_addr constant [24 x i8] c"repack.updateserverinfo\00", align 1
@.str.106 = private unnamed_addr constant [19 x i8] c"repack.cruftwindow\00", align 1
@.str.107 = private unnamed_addr constant [25 x i8] c"repack.cruftwindowmemory\00", align 1
@.str.108 = private unnamed_addr constant [18 x i8] c"repack.cruftdepth\00", align 1
@.str.109 = private unnamed_addr constant [20 x i8] c"repack.cruftthreads\00", align 1

; Function Attrs: nounwind uwtable
define internal i32 @repack_config(ptr noundef %0, ptr noundef %1, ptr noundef %2, ptr noundef %3) #0 {
  %5 = alloca i32, align 4
  %6 = alloca ptr, align 8
  %7 = alloca ptr, align 8
  %8 = alloca ptr, align 8
  %9 = alloca ptr, align 8
  %10 = alloca ptr, align 8
  %11 = alloca i32, align 4
  store ptr %0, ptr %6, align 8, !tbaa !11
  store ptr %1, ptr %7, align 8, !tbaa !11
  store ptr %2, ptr %8, align 8, !tbaa !98
  store ptr %3, ptr %9, align 8, !tbaa !97
  call void @llvm.lifetime.start.p0(i64 8, ptr %10) #10
  %12 = load ptr, ptr %9, align 8, !tbaa !97
  store ptr %12, ptr %10, align 8, !tbaa !100
  %13 = load ptr, ptr %6, align 8, !tbaa !11
  %14 = call i32 @strcmp(ptr noundef %13, ptr noundef @.str.100) #13
  %15 = icmp ne i32 %14, 0
  br i1 %15, label %20, label %16

16:                                               ; preds = %4
  %17 = load ptr, ptr %6, align 8, !tbaa !11
  %18 = load ptr, ptr %7, align 8, !tbaa !11
  %19 = call i32 @git_config_bool(ptr noundef %17, ptr noundef %18)
  store i32 %19, ptr @delta_base_offset, align 4, !tbaa !4
  store i32 0, ptr %5, align 4
  store i32 1, ptr %11, align 4
  br label %114

20:                                               ; preds = %4
  %21 = load ptr, ptr %6, align 8, !tbaa !11
  %22 = call i32 @strcmp(ptr noundef %21, ptr noundef @.str.101) #13
  %23 = icmp ne i32 %22, 0
  br i1 %23, label %28, label %24

24:                                               ; preds = %20
  %25 = load ptr, ptr %6, align 8, !tbaa !11
  %26 = load ptr, ptr %7, align 8, !tbaa !11
  %27 = call i32 @git_config_bool(ptr noundef %25, ptr noundef %26)
  store i32 %27, ptr @pack_kept_objects, align 4, !tbaa !4
  store i32 0, ptr %5, align 4
  store i32 1, ptr %11, align 4
  br label %114

28:                                               ; preds = %20
  %29 = load ptr, ptr %6, align 8, !tbaa !11
  %30 = call i32 @strcmp(ptr noundef %29, ptr noundef @.str.102) #13
  %31 = icmp ne i32 %30, 0
  br i1 %31, label %32, label %36

32:                                               ; preds = %28
  %33 = load ptr, ptr %6, align 8, !tbaa !11
  %34 = call i32 @strcmp(ptr noundef %33, ptr noundef @.str.103) #13
  %35 = icmp ne i32 %34, 0
  br i1 %35, label %40, label %36

36:                                               ; preds = %32, %28
  %37 = load ptr, ptr %6, align 8, !tbaa !11
  %38 = load ptr, ptr %7, align 8, !tbaa !11
  %39 = call i32 @git_config_bool(ptr noundef %37, ptr noundef %38)
  store i32 %39, ptr @write_bitmaps, align 4, !tbaa !4
  store i32 0, ptr %5, align 4
  store i32 1, ptr %11, align 4
  br label %114

40:                                               ; preds = %32
  %41 = load ptr, ptr %6, align 8, !tbaa !11
  %42 = call i32 @strcmp(ptr noundef %41, ptr noundef @.str.104) #13
  %43 = icmp ne i32 %42, 0
  br i1 %43, label %48, label %44

44:                                               ; preds = %40
  %45 = load ptr, ptr %6, align 8, !tbaa !11
  %46 = load ptr, ptr %7, align 8, !tbaa !11
  %47 = call i32 @git_config_bool(ptr noundef %45, ptr noundef %46)
  store i32 %47, ptr @use_delta_islands, align 4, !tbaa !4
  store i32 0, ptr %5, align 4
  store i32 1, ptr %11, align 4
  br label %114

48:                                               ; preds = %40
  %49 = load ptr, ptr %6, align 8, !tbaa !11
  %50 = call i32 @strcmp(ptr noundef %49, ptr noundef @.str.105) #13
  %51 = icmp eq i32 %50, 0
  br i1 %51, label %52, label %56

52:                                               ; preds = %48
  %53 = load ptr, ptr %6, align 8, !tbaa !11
  %54 = load ptr, ptr %7, align 8, !tbaa !11
  %55 = call i32 @git_config_bool(ptr noundef %53, ptr noundef %54)
  store i32 %55, ptr @run_update_server_info, align 4, !tbaa !4
  store i32 0, ptr %5, align 4
  store i32 1, ptr %11, align 4
  br label %114

56:                                               ; preds = %48
  %57 = load ptr, ptr %6, align 8, !tbaa !11
  %58 = call i32 @strcmp(ptr noundef %57, ptr noundef @.str.106) #13
  %59 = icmp ne i32 %58, 0
  br i1 %59, label %69, label %60

60:                                               ; preds = %56
  %61 = load ptr, ptr %10, align 8, !tbaa !100
  %62 = getelementptr inbounds nuw %struct.pack_objects_args, ptr %61, i32 0, i32 0
  %63 = load ptr, ptr %62, align 8, !tbaa !31
  call void @free(ptr noundef %63) #10
  %64 = load ptr, ptr %10, align 8, !tbaa !100
  %65 = getelementptr inbounds nuw %struct.pack_objects_args, ptr %64, i32 0, i32 0
  %66 = load ptr, ptr %6, align 8, !tbaa !11
  %67 = load ptr, ptr %7, align 8, !tbaa !11
  %68 = call i32 @git_config_string(ptr noundef %65, ptr noundef %66, ptr noundef %67)
  store i32 %68, ptr %5, align 4
  store i32 1, ptr %11, align 4
  br label %114

69:                                               ; preds = %56
  %70 = load ptr, ptr %6, align 8, !tbaa !11
  %71 = call i32 @strcmp(ptr noundef %70, ptr noundef @.str.107) #13
  %72 = icmp ne i32 %71, 0
  br i1 %72, label %82, label %73

73:                                               ; preds = %69
  %74 = load ptr, ptr %10, align 8, !tbaa !100
  %75 = getelementptr inbounds nuw %struct.pack_objects_args, ptr %74, i32 0, i32 1
  %76 = load ptr, ptr %75, align 8, !tbaa !36
  call void @free(ptr noundef %76) #10
  %77 = load ptr, ptr %10, align 8, !tbaa !100
  %78 = getelementptr inbounds nuw %struct.pack_objects_args, ptr %77, i32 0, i32 1
  %79 = load ptr, ptr %6, align 8, !tbaa !11
  %80 = load ptr, ptr %7, align 8, !tbaa !11
  %81 = call i32 @git_config_string(ptr noundef %78, ptr noundef %79, ptr noundef %80)
  store i32 %81, ptr %5, align 4
  store i32 1, ptr %11, align 4
  br label %114

82:                                               ; preds = %69
  %83 = load ptr, ptr %6, align 8, !tbaa !11
  %84 = call i32 @strcmp(ptr noundef %83, ptr noundef @.str.108) #13
  %85 = icmp ne i32 %84, 0
  br i1 %85, label %95, label %86

86:                                               ; preds = %82
  %87 = load ptr, ptr %10, align 8, !tbaa !100
  %88 = getelementptr inbounds nuw %struct.pack_objects_args, ptr %87, i32 0, i32 2
  %89 = load ptr, ptr %88, align 8, !tbaa !37
  call void @free(ptr noundef %89) #10
  %90 = load ptr, ptr %10, align 8, !tbaa !100
  %91 = getelementptr inbounds nuw %struct.pack_objects_args, ptr %90, i32 0, i32 2
  %92 = load ptr, ptr %6, align 8, !tbaa !11
  %93 = load ptr, ptr %7, align 8, !tbaa !11
  %94 = call i32 @git_config_string(ptr noundef %91, ptr noundef %92, ptr noundef %93)
  store i32 %94, ptr %5, align 4
  store i32 1, ptr %11, align 4
  br label %114

95:                                               ; preds = %82
  %96 = load ptr, ptr %6, align 8, !tbaa !11
  %97 = call i32 @strcmp(ptr noundef %96, ptr noundef @.str.109) #13
  %98 = icmp ne i32 %97, 0
  br i1 %98, label %108, label %99

99:                                               ; preds = %95
  %100 = load ptr, ptr %10, align 8, !tbaa !100
  %101 = getelementptr inbounds nuw %struct.pack_objects_args, ptr %100, i32 0, i32 3
  %102 = load ptr, ptr %101, align 8, !tbaa !38
  call void @free(ptr noundef %102) #10
  %103 = load ptr, ptr %10, align 8, !tbaa !100
  %104 = getelementptr inbounds nuw %struct.pack_objects_args, ptr %103, i32 0, i32 3
  %105 = load ptr, ptr %6, align 8, !tbaa !11
  %106 = load ptr, ptr %7, align 8, !tbaa !11
  %107 = call i32 @git_config_string(ptr noundef %104, ptr noundef %105, ptr noundef %106)
  store i32 %107, ptr %5, align 4
  store i32 1, ptr %11, align 4
  br label %114

108:                                              ; preds = %95
  %109 = load ptr, ptr %6, align 8, !tbaa !11
  %110 = load ptr, ptr %7, align 8, !tbaa !11
  %111 = load ptr, ptr %8, align 8, !tbaa !98
  %112 = load ptr, ptr %9, align 8, !tbaa !97
  %113 = call i32 @git_default_config(ptr noundef %109, ptr noundef %110, ptr noundef %111, ptr noundef %112)
  store i32 %113, ptr %5, align 4
  store i32 1, ptr %11, align 4
  br label %114

114:                                              ; preds = %108, %99, %86, %73, %60, %52, %44, %36, %24, %16
  call void @llvm.lifetime.end.p0(i64 8, ptr %10) #10
  %115 = load i32, ptr %5, align 4
  ret i32 %115
}