; Function Attrs: nounwind uwtable
define internal i32 @repack_config(ptr noundef %0, ptr noundef %1, ptr noundef %2, ptr noundef %3) #0 {
  %5 = tail call i32 @strcmp(ptr noundef nonnull dereferenceable(1) %0, ptr noundef nonnull dereferenceable(26) @.str.100) #19
  %.not = icmp eq i32 %5, 0
  br i1 %.not, label %6, label %8

6:                                                ; preds = %4
  %7 = tail call i32 @git_config_bool(ptr noundef nonnull %0, ptr noundef %1) #16
  store i32 %7, ptr @delta_base_offset, align 4, !tbaa !4
  br label %52

8:                                                ; preds = %4
  %9 = tail call i32 @strcmp(ptr noundef nonnull dereferenceable(1) %0, ptr noundef nonnull dereferenceable(23) @.str.101) #19
  %.not41 = icmp eq i32 %9, 0
  br i1 %.not41, label %10, label %12

10:                                               ; preds = %8
  %11 = tail call i32 @git_config_bool(ptr noundef nonnull %0, ptr noundef %1) #16
  store i32 %11, ptr @pack_kept_objects, align 4, !tbaa !4
  br label %52

12:                                               ; preds = %8
  %13 = tail call i32 @strcmp(ptr noundef nonnull dereferenceable(1) %0, ptr noundef nonnull dereferenceable(20) @.str.102) #19
  %.not42 = icmp eq i32 %13, 0
  br i1 %.not42, label %16, label %14

14:                                               ; preds = %12
  %15 = tail call i32 @strcmp(ptr noundef nonnull dereferenceable(1) %0, ptr noundef nonnull dereferenceable(18) @.str.103) #19
  %.not43 = icmp eq i32 %15, 0
  br i1 %.not43, label %16, label %18

16:                                               ; preds = %14, %12
  %17 = tail call i32 @git_config_bool(ptr noundef nonnull %0, ptr noundef %1) #16
  store i32 %17, ptr @write_bitmaps, align 4, !tbaa !4
  br label %52

18:                                               ; preds = %14
  %19 = tail call i32 @strcmp(ptr noundef nonnull dereferenceable(1) %0, ptr noundef nonnull dereferenceable(23) @.str.104) #19
  %.not44 = icmp eq i32 %19, 0
  br i1 %.not44, label %20, label %22

20:                                               ; preds = %18
  %21 = tail call i32 @git_config_bool(ptr noundef nonnull %0, ptr noundef %1) #16
  store i32 %21, ptr @use_delta_islands, align 4, !tbaa !4
  br label %52

22:                                               ; preds = %18
  %23 = tail call i32 @strcmp(ptr noundef nonnull dereferenceable(1) %0, ptr noundef nonnull dereferenceable(24) @.str.105) #19
  %24 = icmp eq i32 %23, 0
  br i1 %24, label %25, label %27

25:                                               ; preds = %22
  %26 = tail call i32 @git_config_bool(ptr noundef nonnull %0, ptr noundef %1) #16
  store i32 %26, ptr @run_update_server_info, align 4, !tbaa !4
  br label %52

27:                                               ; preds = %22
  %28 = tail call i32 @strcmp(ptr noundef nonnull dereferenceable(1) %0, ptr noundef nonnull dereferenceable(19) @.str.106) #19
  %.not45 = icmp eq i32 %28, 0
  br i1 %.not45, label %29, label %32

29:                                               ; preds = %27
  %30 = load ptr, ptr %3, align 8, !tbaa !24
  tail call void @free(ptr noundef %30) #16
  %31 = tail call i32 @git_config_string(ptr noundef nonnull %3, ptr noundef nonnull %0, ptr noundef %1) #16
  br label %52

32:                                               ; preds = %27
  %33 = tail call i32 @strcmp(ptr noundef nonnull dereferenceable(1) %0, ptr noundef nonnull dereferenceable(25) @.str.107) #19
  %.not46 = icmp eq i32 %33, 0
  br i1 %.not46, label %34, label %38

34:                                               ; preds = %32
  %35 = getelementptr inbounds nuw i8, ptr %3, i64 8
  %36 = load ptr, ptr %35, align 8, !tbaa !29
  tail call void @free(ptr noundef %36) #16
  %37 = tail call i32 @git_config_string(ptr noundef nonnull %35, ptr noundef nonnull %0, ptr noundef %1) #16
  br label %52

38:                                               ; preds = %32
  %39 = tail call i32 @strcmp(ptr noundef nonnull dereferenceable(1) %0, ptr noundef nonnull dereferenceable(18) @.str.108) #19
  %.not47 = icmp eq i32 %39, 0
  br i1 %.not47, label %40, label %44

40:                                               ; preds = %38
  %41 = getelementptr inbounds nuw i8, ptr %3, i64 16
  %42 = load ptr, ptr %41, align 8, !tbaa !30
  tail call void @free(ptr noundef %42) #16
  %43 = tail call i32 @git_config_string(ptr noundef nonnull %41, ptr noundef nonnull %0, ptr noundef %1) #16
  br label %52

44:                                               ; preds = %38
  %45 = tail call i32 @strcmp(ptr noundef nonnull dereferenceable(1) %0, ptr noundef nonnull dereferenceable(20) @.str.109) #19
  %.not48 = icmp eq i32 %45, 0
  br i1 %.not48, label %46, label %50

46:                                               ; preds = %44
  %47 = getelementptr inbounds nuw i8, ptr %3, i64 24
  %48 = load ptr, ptr %47, align 8, !tbaa !31
  tail call void @free(ptr noundef %48) #16
  %49 = tail call i32 @git_config_string(ptr noundef nonnull %47, ptr noundef nonnull %0, ptr noundef %1) #16
  br label %52

50:                                               ; preds = %44
  %51 = tail call i32 @git_default_config(ptr noundef nonnull %0, ptr noundef %1, ptr noundef %2, ptr noundef %3) #16
  br label %52

52:                                               ; preds = %50, %46, %40, %34, %29, %25, %20, %16, %10, %6
  %.0 = phi i32 [ 0, %25 ], [ %51, %50 ], [ %49, %46 ], [ %43, %40 ], [ %37, %34 ], [ %31, %29 ], [ 0, %20 ], [ 0, %16 ], [ 0, %10 ], [ 0, %6 ]
  ret i32 %.0
}